Certificate:
    Data:
        Version: 3 (0x2)
        Serial Number: 0 (0x0)
        Signature Algorithm: sha256WithRSAEncryption
        Issuer: C=IE, ST=Dublin, L=Dublin, O=TCD, OU=SCSS, CN=root
        Validity
            Not Before: Nov 29 23:38:52 2021 GMT
            Not After : Nov 29 23:38:52 2022 GMT
        Subject: C=IE, ST=Dublin, O=TCD, OU=SCSS, CN=rasp-*.scss.tcd.ie, CN=127.*.*.*
        Subject Public Key Info:
            Public Key Algorithm: rsaEncryption
                RSA Public-Key: (2048 bit)
                Modulus:
                    00:b4:39:fc:f4:73:34:35:ee:00:4c:ab:5d:de:54:
                    17:4b:6c:73:71:38:aa:d9:10:49:df:b2:c3:c6:08:
                    35:5e:b5:d3:46:37:65:1c:50:94:81:b7:46:53:9e:
                    59:3c:26:ae:21:9c:99:66:0c:d3:67:36:f2:c3:f8:
                    97:8b:5a:65:4d:a2:c7:8d:b8:bd:e7:a2:65:85:07:
                    dc:93:06:7d:c2:b7:15:dc:5d:7d:fe:06:7c:50:9f:
                    d3:9c:e5:eb:45:19:3c:e1:67:13:9b:eb:9b:a6:65:
                    49:78:33:c2:c2:55:6a:d1:31:64:13:86:b4:dd:41:
                    07:7f:ed:33:0c:90:b5:2e:5f:e2:6f:2b:34:ec:70:
                    04:64:45:2f:51:b4:cf:d3:de:1a:65:10:19:05:72:
                    ec:e0:25:94:91:ec:ed:78:b0:a5:2c:6c:ca:f3:60:
                    9a:49:5c:be:ee:ba:9b:71:f9:3c:c8:b3:f6:df:e6:
                    e9:66:6e:79:83:35:28:7d:04:02:f6:e1:44:2d:cb:
                    96:8c:71:eb:ed:52:f0:07:a0:89:ae:80:a2:ce:fc:
                    14:0a:63:0f:26:ce:5c:31:fd:a2:c4:5f:e8:eb:a9:
                    25:32:44:e2:c1:c7:f3:1c:50:1c:6a:45:8c:ef:ea:
                    d0:19:64:73:1c:ab:8f:6c:f5:c5:9d:db:87:05:83:
                    c4:e7
                Exponent: 65537 (0x10001)
        X509v3 extensions:
            X509v3 Subject Alternative Name: 
                IP Address:127.0.0.1, IP Address:127.0.0.2, IP Address:127.0.0.3, IP Address:127.0.0.4, IP Address:127.0.0.5, IP Address:127.0.0.6, IP Address:127.0.1.1, IP Address:127.0.1.2, IP Address:127.0.1.3, IP Address:127.0.1.4, IP Address:127.0.1.5, IP Address:127.0.1.6, IP Address:127.0.1.7, IP Address:127.0.1.8, IP Address:127.0.1.9, IP Address:127.0.2.1, IP Address:127.0.2.2, IP Address:127.0.2.3, IP Address:127.0.2.4, IP Address:127.0.2.5, IP Address:127.0.2.6, IP Address:127.0.2.7, IP Address:127.0.2.8, IP Address:127.0.2.9, IP Address:127.0.3.1, IP Address:127.0.3.2, IP Address:127.0.3.3, IP Address:127.0.3.4, IP Address:127.0.3.5, IP Address:127.0.3.6, IP Address:127.0.3.7, IP Address:127.0.3.8, IP Address:127.0.3.9, IP Address:127.0.4.1, IP Address:127.0.4.2, IP Address:127.0.4.3, IP Address:127.0.4.4, IP Address:127.0.4.5, IP Address:127.0.4.6, IP Address:127.0.4.7, IP Address:127.0.4.8, IP Address:127.0.4.9, IP Address:127.0.5.1, IP Address:127.0.5.2, IP Address:127.0.5.3, IP Address:127.0.5.4, IP Address:127.0.5.5, IP Address:127.0.5.6, IP Address:127.0.5.7, IP Address:127.0.5.8, IP Address:127.0.5.9, IP Address:127.0.6.1, IP Address:127.0.6.2, IP Address:127.0.6.3, IP Address:127.0.6.4, IP Address:127.0.6.5, IP Address:127.0.6.6, IP Address:127.0.6.7, IP Address:127.0.6.8, IP Address:127.0.6.9, DNS:*.scss.tcd.ie
    Signature Algorithm: sha256WithRSAEncryption
         81:38:29:18:f8:2b:2a:ea:a6:7c:7d:5a:8e:ba:e4:8a:a9:0e:
         d9:ab:e3:bd:76:46:aa:96:65:d5:58:67:b5:21:95:62:fe:71:
         38:8d:65:05:68:04:f1:7e:71:62:7e:df:3b:69:e0:3b:e6:78:
         eb:9f:c7:24:e2:55:13:ac:e4:02:15:17:f0:39:63:16:e9:ae:
         df:b5:48:1b:78:e8:b8:0f:86:be:c6:e3:dc:56:2b:52:f6:90:
         d2:0f:59:13:ab:a2:26:97:0e:56:9d:d1:71:c8:63:8a:d2:92:
         af:2f:2f:8a:c2:89:37:77:5f:dd:e1:fa:d6:ea:58:6a:c2:40:
         2a:18
-----BEGIN CERTIFICATE-----
MIIETzCCA7igAwIBAgIBADANBgkqhkiG9w0BAQsFADBbMQswCQYDVQQGEwJJRTEP
MA0GA1UECAwGRHVibGluMQ8wDQYDVQQHDAZEdWJsaW4xDDAKBgNVBAoMA1RDRDEN
MAsGA1UECwwEU0NTUzENMAsGA1UEAwwEcm9vdDAeFw0yMTExMjkyMzM4NTJaFw0y
MjExMjkyMzM4NTJaMGwxCzAJBgNVBAYTAklFMQ8wDQYDVQQIDAZEdWJsaW4xDDAK
BgNVBAoMA1RDRDENMAsGA1UECwwEU0NTUzEbMBkGA1UEAwwScmFzcC0qLnNjc3Mu
dGNkLmllMRIwEAYDVQQDDAkxMjcuKi4qLiowggEiMA0GCSqGSIb3DQEBAQUAA4IB
DwAwggEKAoIBAQC0Ofz0czQ17gBMq13eVBdLbHNxOKrZEEnfssPGCDVetdNGN2Uc
UJSBt0ZTnlk8Jq4hnJlmDNNnNvLD+JeLWmVNoseNuL3nomWFB9yTBn3CtxXcXX3+
BnxQn9Oc5etFGTzhZxOb65umZUl4M8LCVWrRMWQThrTdQQd/7TMMkLUuX+JvKzTs
cARkRS9RtM/T3hplEBkFcuzgJZSR7O14sKUsbMrzYJpJXL7uuptx+TzIs/bf5ulm
bnmDNSh9BAL24UQty5aMcevtUvAHoImugKLO/BQKYw8mzlwx/aLEX+jrqSUyROLB
x/McUBxqRYzv6tAZZHMcq49s9cWd24cFg8TnAgMBAAGjggGMMIIBiDCCAYQGA1Ud
EQSCAXswggF3hwR/AAABhwR/AAAChwR/AAADhwR/AAAEhwR/AAAFhwR/AAAGhwR/
AAEBhwR/AAEChwR/AAEDhwR/AAEEhwR/AAEFhwR/AAEGhwR/AAEHhwR/AAEIhwR/
AAEJhwR/AAIBhwR/AAIChwR/AAIDhwR/AAIEhwR/AAIFhwR/AAIGhwR/AAIHhwR/
AAIIhwR/AAIJhwR/AAMBhwR/AAMChwR/AAMDhwR/AAMEhwR/AAMFhwR/AAMGhwR/
AAMHhwR/AAMIhwR/AAMJhwR/AAQBhwR/AAQChwR/AAQDhwR/AAQEhwR/AAQFhwR/
AAQGhwR/AAQHhwR/AAQIhwR/AAQJhwR/AAUBhwR/AAUChwR/AAUDhwR/AAUEhwR/
AAUFhwR/AAUGhwR/AAUHhwR/AAUIhwR/AAUJhwR/AAYBhwR/AAYChwR/AAYDhwR/
AAYEhwR/AAYFhwR/AAYGhwR/AAYHhwR/AAYIhwR/AAYJgg0qLnNjc3MudGNkLmll
MA0GCSqGSIb3DQEBCwUAA4GBAIE4KRj4Kyrqpnx9Wo665IqpDtmr4712RqqWZdVY
Z7UhlWL+cTiNZQVoBPF+cWJ+3ztp4DvmeOufxyTiVROs5AIVF/A5Yxbprt+1SBt4
6LgPhr7G49xWK1L2kNIPWROroiaXDlad0XHIY4rSkq8vL4rCiTd3X93h+tbqWGrC
QCoY
-----END CERTIFICATE-----
